target datalayout = "e-m:e-p270:32:32-p271:32:32-p272:64:64-i64:64-i128:128-f80:128-n8:16:32:64-S128"
target triple = "x86_64-pc-linux-gnu"

%struct._priv_exr_part_t = type { i32, i32, %struct.exr_attribute_list, ptr, ptr, ptr, ptr, ptr, ptr, ptr, ptr, ptr, ptr, ptr, ptr, ptr, ptr, %struct.exr_attr_box2i_t, %struct.exr_attr_box2i_t, i32, i32, i32, float, i32, i32, ptr, ptr, ptr, ptr, i64, i16, i16, i32, i64, i64 }
%struct.exr_attribute_list = type { i32, i32, ptr, ptr }
%struct.exr_attr_box2i_t = type { %struct.exr_attr_v2i_t, %struct.exr_attr_v2i_t }
%struct.exr_attr_v2i_t = type { i32, i32 }
%struct._priv_exr_context_t = type { i8, i8, i8, i8, i8, i8, i8, i8, %struct.exr_attr_string_t, %struct.exr_attr_string_t, ptr, ptr, ptr, ptr, ptr, ptr, ptr, ptr, i32, i32, i32, i32, i32, float, ptr, ptr, ptr, i64, ptr, ptr, i64, i32, i32, i32, i32, %struct._priv_exr_part_t, ptr, ptr, %struct.exr_attribute_list, %union.pthread_mutex_t, i8, i8, [2 x i8], i32 }
%struct.exr_attr_string_t = type { i32, i32, ptr }
%union.pthread_mutex_t = type { %struct.__pthread_mutex_s }
%struct.__pthread_mutex_s = type { i32, i32, i32, i32, i32, i16, i16, %struct.__pthread_internal_list }
%struct.__pthread_internal_list = type { ptr, ptr }
%struct.exr_coding_channel_info_t = type { ptr, i32, i32, i32, i32, i8, i8, i16, i16, i16, i32, i32, %union.anon.0 }
%union.anon.0 = type { ptr }
%struct.exr_chunk_info_t = type { i32, i32, i32, i32, i32, i8, i8, i8, i8, i64, i64, i64, i64, i64 }
%struct._exr_encode_pipeline = type { i64, ptr, i16, i16, i32, ptr, %struct.exr_chunk_info_t, ptr, ptr, i64, i64, ptr, i64, ptr, i64, i64, ptr, i64, i64, ptr, i64, ptr, i64, ptr, ptr, ptr, ptr, ptr, ptr, [5 x %struct.exr_coding_channel_info_t] }

@.str.1 = private unnamed_addr constant [29 x i8] c"Part index (%d) out of range\00", align 1
@.str.2 = private unnamed_addr constant [58 x i8] c"Attempt to allocate 0 byte buffer for transcode buffer %d\00", align 1
@.str.3 = private unnamed_addr constant [29 x i8] c"Unable to allocate %lu bytes\00", align 1

; Function Attrs: nounwind uwtable
define hidden i32 @internal_encode_free_buffer(ptr noundef %0, i32 noundef %1, ptr noundef %2, ptr noundef %3) #0 {
  %5 = alloca i32, align 4
  %6 = alloca ptr, align 8
  %7 = alloca i32, align 4
  %8 = alloca ptr, align 8
  %9 = alloca ptr, align 8
  %10 = alloca ptr, align 8
  %11 = alloca i64, align 8
  %12 = alloca ptr, align 8
  %13 = alloca i32, align 4
  store ptr %0, ptr %6, align 8, !tbaa !63
  store i32 %1, ptr %7, align 4, !tbaa !28
  store ptr %2, ptr %8, align 8, !tbaa !3
  store ptr %3, ptr %9, align 8, !tbaa !65
  call void @llvm.lifetime.start.p0(i64 8, ptr %10) #4
  %14 = load ptr, ptr %8, align 8, !tbaa !3
  %15 = load ptr, ptr %14, align 8, !tbaa !10
  store ptr %15, ptr %10, align 8, !tbaa !10
  call void @llvm.lifetime.start.p0(i64 8, ptr %11) #4
  %16 = load ptr, ptr %9, align 8, !tbaa !65
  %17 = load i64, ptr %16, align 8, !tbaa !67
  store i64 %17, ptr %11, align 8, !tbaa !67
  %18 = load ptr, ptr %10, align 8, !tbaa !10
  %19 = icmp ne ptr %18, null
  br i1 %19, label %20, label %74

20:                                               ; preds = %4
  %21 = load i64, ptr %11, align 8, !tbaa !67
  %22 = icmp ugt i64 %21, 0
  br i1 %22, label %23, label %72

23:                                               ; preds = %20
  %24 = load ptr, ptr %6, align 8, !tbaa !63
  %25 = getelementptr inbounds nuw %struct._exr_encode_pipeline, ptr %24, i32 0, i32 24
  %26 = load ptr, ptr %25, align 8, !tbaa !68
  %27 = icmp ne ptr %26, null
  br i1 %27, label %28, label %34

28:                                               ; preds = %23
  %29 = load ptr, ptr %6, align 8, !tbaa !63
  %30 = getelementptr inbounds nuw %struct._exr_encode_pipeline, ptr %29, i32 0, i32 24
  %31 = load ptr, ptr %30, align 8, !tbaa !68
  %32 = load i32, ptr %7, align 4, !tbaa !28
  %33 = load ptr, ptr %10, align 8, !tbaa !10
  call void %31(i32 noundef %32, ptr noundef %33)
  br label %71

34:                                               ; preds = %23
  call void @llvm.lifetime.start.p0(i64 8, ptr %12) #4
  %35 = load ptr, ptr %6, align 8, !tbaa !63
  %36 = getelementptr inbounds nuw %struct._exr_encode_pipeline, ptr %35, i32 0, i32 5
  %37 = load ptr, ptr %36, align 8, !tbaa !70
  store ptr %37, ptr %12, align 8, !tbaa !11
  %38 = load ptr, ptr %12, align 8, !tbaa !11
  %39 = icmp ne ptr %38, null
  br i1 %39, label %41, label %40

40:                                               ; preds = %34
  store i32 2, ptr %5, align 4
  store i32 1, ptr %13, align 4
  br label %68

41:                                               ; preds = %34
  %42 = load ptr, ptr %6, align 8, !tbaa !63
  %43 = getelementptr inbounds nuw %struct._exr_encode_pipeline, ptr %42, i32 0, i32 4
  %44 = load i32, ptr %43, align 4, !tbaa !71
  %45 = icmp slt i32 %44, 0
  br i1 %45, label %54, label %46

46:                                               ; preds = %41
  %47 = load ptr, ptr %6, align 8, !tbaa !63
  %48 = getelementptr inbounds nuw %struct._exr_encode_pipeline, ptr %47, i32 0, i32 4
  %49 = load i32, ptr %48, align 4, !tbaa !71
  %50 = load ptr, ptr %12, align 8, !tbaa !11
  %51 = getelementptr inbounds nuw %struct._priv_exr_context_t, ptr %50, i32 0, i32 34
  %52 = load i32, ptr %51, align 4, !tbaa !72
  %53 = icmp sge i32 %49, %52
  br i1 %53, label %54, label %63

54:                                               ; preds = %46, %41
  %55 = load ptr, ptr %12, align 8, !tbaa !11
  %56 = getelementptr inbounds nuw %struct._priv_exr_context_t, ptr %55, i32 0, i32 14
  %57 = load ptr, ptr %56, align 8, !tbaa !61
  %58 = load ptr, ptr %12, align 8, !tbaa !11
  %59 = load ptr, ptr %6, align 8, !tbaa !63
  %60 = getelementptr inbounds nuw %struct._exr_encode_pipeline, ptr %59, i32 0, i32 4
  %61 = load i32, ptr %60, align 4, !tbaa !71
  %62 = call i32 (ptr, i32, ptr, ...) %57(ptr noundef %58, i32 noundef 4, ptr noundef @.str.1, i32 noundef %61)
  store i32 %62, ptr %5, align 4
  store i32 1, ptr %13, align 4
  br label %68

63:                                               ; preds = %46
  %64 = load ptr, ptr %12, align 8, !tbaa !11
  %65 = getelementptr inbounds nuw %struct._priv_exr_context_t, ptr %64, i32 0, i32 17
  %66 = load ptr, ptr %65, align 8, !tbaa !73
  %67 = load ptr, ptr %10, align 8, !tbaa !10
  call void %66(ptr noundef %67)
  store i32 0, ptr %13, align 4
  br label %68

68:                                               ; preds = %63, %54, %40
  call void @llvm.lifetime.end.p0(i64 8, ptr %12) #4
  %69 = load i32, ptr %13, align 4
  switch i32 %69, label %76 [
    i32 0, label %70
  ]

70:                                               ; preds = %68
  br label %71

71:                                               ; preds = %70, %28
  br label %72

72:                                               ; preds = %71, %20
  %73 = load ptr, ptr %8, align 8, !tbaa !3
  store ptr null, ptr %73, align 8, !tbaa !10
  br label %74

74:                                               ; preds = %72, %4
  %75 = load ptr, ptr %9, align 8, !tbaa !65
  store i64 0, ptr %75, align 8, !tbaa !67
  store i32 0, ptr %5, align 4
  store i32 1, ptr %13, align 4
  br label %76

76:                                               ; preds = %74, %68
  call void @llvm.lifetime.end.p0(i64 8, ptr %11) #4
  call void @llvm.lifetime.end.p0(i64 8, ptr %10) #4
  %77 = load i32, ptr %5, align 4
  ret i32 %77
}

; Function Attrs: nounwind uwtable
define hidden i32 @internal_encode_alloc_buffer(ptr noundef %0, i32 noundef %1, ptr noundef %2, ptr noundef %3, i64 noundef %4) #0 {
  %6 = alloca i32, align 4
  %7 = alloca ptr, align 8
  %8 = alloca i32, align 4
  %9 = alloca ptr, align 8
  %10 = alloca ptr, align 8
  %11 = alloca i64, align 8
  %12 = alloca ptr, align 8
  %13 = alloca ptr, align 8
  %14 = alloca i32, align 4
  %15 = alloca ptr, align 8
  %16 = alloca ptr, align 8
  store ptr %0, ptr %7, align 8, !tbaa !63
  store i32 %1, ptr %8, align 4, !tbaa !28
  store ptr %2, ptr %9, align 8, !tbaa !3
  store ptr %3, ptr %10, align 8, !tbaa !65
  store i64 %4, ptr %11, align 8, !tbaa !67
  call void @llvm.lifetime.start.p0(i64 8, ptr %12) #4
  %17 = load ptr, ptr %9, align 8, !tbaa !3
  %18 = load ptr, ptr %17, align 8, !tbaa !10
  store ptr %18, ptr %12, align 8, !tbaa !10
  %19 = load i64, ptr %11, align 8, !tbaa !67
  %20 = icmp eq i64 %19, 0
  br i1 %20, label %21, label %58

21:                                               ; preds = %5
  call void @llvm.lifetime.start.p0(i64 8, ptr %13) #4
  %22 = load ptr, ptr %7, align 8, !tbaa !63
  %23 = getelementptr inbounds nuw %struct._exr_encode_pipeline, ptr %22, i32 0, i32 5
  %24 = load ptr, ptr %23, align 8, !tbaa !70
  store ptr %24, ptr %13, align 8, !tbaa !11
  %25 = load ptr, ptr %13, align 8, !tbaa !11
  %26 = icmp ne ptr %25, null
  br i1 %26, label %28, label %27

27:                                               ; preds = %21
  store i32 2, ptr %6, align 4
  store i32 1, ptr %14, align 4
  br label %57

28:                                               ; preds = %21
  %29 = load ptr, ptr %7, align 8, !tbaa !63
  %30 = getelementptr inbounds nuw %struct._exr_encode_pipeline, ptr %29, i32 0, i32 4
  %31 = load i32, ptr %30, align 4, !tbaa !71
  %32 = icmp slt i32 %31, 0
  br i1 %32, label %41, label %33

33:                                               ; preds = %28
  %34 = load ptr, ptr %7, align 8, !tbaa !63
  %35 = getelementptr inbounds nuw %struct._exr_encode_pipeline, ptr %34, i32 0, i32 4
  %36 = load i32, ptr %35, align 4, !tbaa !71
  %37 = load ptr, ptr %13, align 8, !tbaa !11
  %38 = getelementptr inbounds nuw %struct._priv_exr_context_t, ptr %37, i32 0, i32 34
  %39 = load i32, ptr %38, align 4, !tbaa !72
  %40 = icmp sge i32 %36, %39
  br i1 %40, label %41, label %50

41:                                               ; preds = %33, %28
  %42 = load ptr, ptr %13, align 8, !tbaa !11
  %43 = getelementptr inbounds nuw %struct._priv_exr_context_t, ptr %42, i32 0, i32 14
  %44 = load ptr, ptr %43, align 8, !tbaa !61
  %45 = load ptr, ptr %13, align 8, !tbaa !11
  %46 = load ptr, ptr %7, align 8, !tbaa !63
  %47 = getelementptr inbounds nuw %struct._exr_encode_pipeline, ptr %46, i32 0, i32 4
  %48 = load i32, ptr %47, align 4, !tbaa !71
  %49 = call i32 (ptr, i32, ptr, ...) %44(ptr noundef %45, i32 noundef 4, ptr noundef @.str.1, i32 noundef %48)
  store i32 %49, ptr %6, align 4
  store i32 1, ptr %14, align 4
  br label %57

50:                                               ; preds = %33
  %51 = load ptr, ptr %13, align 8, !tbaa !11
  %52 = getelementptr inbounds nuw %struct._priv_exr_context_t, ptr %51, i32 0, i32 14
  %53 = load ptr, ptr %52, align 8, !tbaa !61
  %54 = load ptr, ptr %13, align 8, !tbaa !11
  %55 = load i32, ptr %8, align 4, !tbaa !28
  %56 = call i32 (ptr, i32, ptr, ...) %53(ptr noundef %54, i32 noundef 3, ptr noundef @.str.2, i32 noundef %55)
  store i32 %56, ptr %6, align 4
  store i32 1, ptr %14, align 4
  br label %57

57:                                               ; preds = %50, %41, %27
  call void @llvm.lifetime.end.p0(i64 8, ptr %13) #4
  br label %167

58:                                               ; preds = %5
  %59 = load ptr, ptr %12, align 8, !tbaa !10
  %60 = icmp ne ptr %59, null
  br i1 %60, label %61, label %66

61:                                               ; preds = %58
  %62 = load ptr, ptr %10, align 8, !tbaa !65
  %63 = load i64, ptr %62, align 8, !tbaa !67
  %64 = load i64, ptr %11, align 8, !tbaa !67
  %65 = icmp ult i64 %63, %64
  br i1 %65, label %66, label %166

66:                                               ; preds = %61, %58
  %67 = load ptr, ptr %7, align 8, !tbaa !63
  %68 = load i32, ptr %8, align 4, !tbaa !28
  %69 = load ptr, ptr %9, align 8, !tbaa !3
  %70 = load ptr, ptr %10, align 8, !tbaa !65
  %71 = call i32 @internal_encode_free_buffer(ptr noundef %67, i32 noundef %68, ptr noundef %69, ptr noundef %70)
  %72 = load ptr, ptr %7, align 8, !tbaa !63
  %73 = getelementptr inbounds nuw %struct._exr_encode_pipeline, ptr %72, i32 0, i32 23
  %74 = load ptr, ptr %73, align 8, !tbaa !74
  %75 = icmp ne ptr %74, null
  br i1 %75, label %76, label %83

76:                                               ; preds = %66
  %77 = load ptr, ptr %7, align 8, !tbaa !63
  %78 = getelementptr inbounds nuw %struct._exr_encode_pipeline, ptr %77, i32 0, i32 23
  %79 = load ptr, ptr %78, align 8, !tbaa !74
  %80 = load i32, ptr %8, align 4, !tbaa !28
  %81 = load i64, ptr %11, align 8, !tbaa !67
  %82 = call ptr %79(i32 noundef %80, i64 noundef %81)
  store ptr %82, ptr %12, align 8, !tbaa !10
  br label %121

83:                                               ; preds = %66
  call void @llvm.lifetime.start.p0(i64 8, ptr %15) #4
  %84 = load ptr, ptr %7, align 8, !tbaa !63
  %85 = getelementptr inbounds nuw %struct._exr_encode_pipeline, ptr %84, i32 0, i32 5
  %86 = load ptr, ptr %85, align 8, !tbaa !70
  store ptr %86, ptr %15, align 8, !tbaa !11
  %87 = load ptr, ptr %15, align 8, !tbaa !11
  %88 = icmp ne ptr %87, null
  br i1 %88, label %90, label %89

89:                                               ; preds = %83
  store i32 2, ptr %6, align 4
  store i32 1, ptr %14, align 4
  br label %118

90:                                               ; preds = %83
  %91 = load ptr, ptr %7, align 8, !tbaa !63
  %92 = getelementptr inbounds nuw %struct._exr_encode_pipeline, ptr %91, i32 0, i32 4
  %93 = load i32, ptr %92, align 4, !tbaa !71
  %94 = icmp slt i32 %93, 0
  br i1 %94, label %103, label %95

95:                                               ; preds = %90
  %96 = load ptr, ptr %7, align 8, !tbaa !63
  %97 = getelementptr inbounds nuw %struct._exr_encode_pipeline, ptr %96, i32 0, i32 4
  %98 = load i32, ptr %97, align 4, !tbaa !71
  %99 = load ptr, ptr %15, align 8, !tbaa !11
  %100 = getelementptr inbounds nuw %struct._priv_exr_context_t, ptr %99, i32 0, i32 34
  %101 = load i32, ptr %100, align 4, !tbaa !72
  %102 = icmp sge i32 %98, %101
  br i1 %102, label %103, label %112

103:                                              ; preds = %95, %90
  %104 = load ptr, ptr %15, align 8, !tbaa !11
  %105 = getelementptr inbounds nuw %struct._priv_exr_context_t, ptr %104, i32 0, i32 14
  %106 = load ptr, ptr %105, align 8, !tbaa !61
  %107 = load ptr, ptr %15, align 8, !tbaa !11
  %108 = load ptr, ptr %7, align 8, !tbaa !63
  %109 = getelementptr inbounds nuw %struct._exr_encode_pipeline, ptr %108, i32 0, i32 4
  %110 = load i32, ptr %109, align 4, !tbaa !71
  %111 = call i32 (ptr, i32, ptr, ...) %106(ptr noundef %107, i32 noundef 4, ptr noundef @.str.1, i32 noundef %110)
  store i32 %111, ptr %6, align 4
  store i32 1, ptr %14, align 4
  br label %118

112:                                              ; preds = %95
  %113 = load ptr, ptr %15, align 8, !tbaa !11
  %114 = getelementptr inbounds nuw %struct._priv_exr_context_t, ptr %113, i32 0, i32 16
  %115 = load ptr, ptr %114, align 8, !tbaa !29
  %116 = load i64, ptr %11, align 8, !tbaa !67
  %117 = call ptr %115(i64 noundef %116)
  store ptr %117, ptr %12, align 8, !tbaa !10
  store i32 0, ptr %14, align 4
  br label %118

118:                                              ; preds = %112, %103, %89
  call void @llvm.lifetime.end.p0(i64 8, ptr %15) #4
  %119 = load i32, ptr %14, align 4
  switch i32 %119, label %167 [
    i32 0, label %120
  ]

120:                                              ; preds = %118
  br label %121

121:                                              ; preds = %120, %76
  %122 = load ptr, ptr %12, align 8, !tbaa !10
  %123 = icmp eq ptr %122, null
  br i1 %123, label %124, label %161

124:                                              ; preds = %121
  call void @llvm.lifetime.start.p0(i64 8, ptr %16) #4
  %125 = load ptr, ptr %7, align 8, !tbaa !63
  %126 = getelementptr inbounds nuw %struct._exr_encode_pipeline, ptr %125, i32 0, i32 5
  %127 = load ptr, ptr %126, align 8, !tbaa !70
  store ptr %127, ptr %16, align 8, !tbaa !11
  %128 = load ptr, ptr %16, align 8, !tbaa !11
  %129 = icmp ne ptr %128, null
  br i1 %129, label %131, label %130

130:                                              ; preds = %124
  store i32 2, ptr %6, align 4
  store i32 1, ptr %14, align 4
  br label %160

131:                                              ; preds = %124
  %132 = load ptr, ptr %7, align 8, !tbaa !63
  %133 = getelementptr inbounds nuw %struct._exr_encode_pipeline, ptr %132, i32 0, i32 4
  %134 = load i32, ptr %133, align 4, !tbaa !71
  %135 = icmp slt i32 %134, 0
  br i1 %135, label %144, label %136

136:                                              ; preds = %131
  %137 = load ptr, ptr %7, align 8, !tbaa !63
  %138 = getelementptr inbounds nuw %struct._exr_encode_pipeline, ptr %137, i32 0, i32 4
  %139 = load i32, ptr %138, align 4, !tbaa !71
  %140 = load ptr, ptr %16, align 8, !tbaa !11
  %141 = getelementptr inbounds nuw %struct._priv_exr_context_t, ptr %140, i32 0, i32 34
  %142 = load i32, ptr %141, align 4, !tbaa !72
  %143 = icmp sge i32 %139, %142
  br i1 %143, label %144, label %153

144:                                              ; preds = %136, %131
  %145 = load ptr, ptr %16, align 8, !tbaa !11
  %146 = getelementptr inbounds nuw %struct._priv_exr_context_t, ptr %145, i32 0, i32 14
  %147 = load ptr, ptr %146, align 8, !tbaa !61
  %148 = load ptr, ptr %16, align 8, !tbaa !11
  %149 = load ptr, ptr %7, align 8, !tbaa !63
  %150 = getelementptr inbounds nuw %struct._exr_encode_pipeline, ptr %149, i32 0, i32 4
  %151 = load i32, ptr %150, align 4, !tbaa !71
  %152 = call i32 (ptr, i32, ptr, ...) %147(ptr noundef %148, i32 noundef 4, ptr noundef @.str.1, i32 noundef %151)
  store i32 %152, ptr %6, align 4
  store i32 1, ptr %14, align 4
  br label %160

153:                                              ; preds = %136
  %154 = load ptr, ptr %16, align 8, !tbaa !11
  %155 = getelementptr inbounds nuw %struct._priv_exr_context_t, ptr %154, i32 0, i32 14
  %156 = load ptr, ptr %155, align 8, !tbaa !61
  %157 = load ptr, ptr %16, align 8, !tbaa !11
  %158 = load i64, ptr %11, align 8, !tbaa !67
  %159 = call i32 (ptr, i32, ptr, ...) %156(ptr noundef %157, i32 noundef 1, ptr noundef @.str.3, i64 noundef %158)
  store i32 %159, ptr %6, align 4
  store i32 1, ptr %14, align 4
  br label %160

160:                                              ; preds = %153, %144, %130
  call void @llvm.lifetime.end.p0(i64 8, ptr %16) #4
  br label %167

161:                                              ; preds = %121
  %162 = load ptr, ptr %12, align 8, !tbaa !10
  %163 = load ptr, ptr %9, align 8, !tbaa !3
  store ptr %162, ptr %163, align 8, !tbaa !10
  %164 = load i64, ptr %11, align 8, !tbaa !67
  %165 = load ptr, ptr %10, align 8, !tbaa !65
  store i64 %164, ptr %165, align 8, !tbaa !67
  br label %166

166:                                              ; preds = %161, %61
  store i32 0, ptr %6, align 4
  store i32 1, ptr %14, align 4
  br label %167

167:                                              ; preds = %166, %160, %118, %57
  call void @llvm.lifetime.end.p0(i64 8, ptr %12) #4
  %168 = load i32, ptr %6, align 4
  ret i32 %168
}