; Function Attrs: nounwind uwtable
define hidden i32 @internal_encode_alloc_buffer(ptr noundef readonly captures(none) %0, i32 noundef %1, ptr noundef captures(none) %2, ptr noundef captures(none) %3, i64 noundef %4) local_unnamed_addr #0 {
  %6 = load ptr, ptr %2, align 8, !tbaa !51
  %7 = icmp eq i64 %4, 0
  br i1 %7, label %8, label %26

8:                                                ; preds = %5
  %9 = getelementptr inbounds nuw i8, ptr %0, i64 24
  %10 = load ptr, ptr %9, align 8, !tbaa !59
  %.not67 = icmp eq ptr %10, null
  br i1 %.not67, label %.thread69, label %11

11:                                               ; preds = %8
  %12 = getelementptr inbounds nuw i8, ptr %0, i64 20
  %13 = load i32, ptr %12, align 4, !tbaa !60
  %14 = icmp slt i32 %13, 0
  br i1 %14, label %18, label %15

15:                                               ; preds = %11
  %16 = getelementptr inbounds nuw i8, ptr %10, i64 196
  %17 = load i32, ptr %16, align 4, !tbaa !61
  %.not68 = icmp slt i32 %13, %17
  br i1 %.not68, label %22, label %18

18:                                               ; preds = %15, %11
  %19 = getelementptr inbounds nuw i8, ptr %10, i64 72
  %20 = load ptr, ptr %19, align 8, !tbaa !54
  %21 = tail call i32 (ptr, i32, ptr, ...) %20(ptr noundef nonnull %10, i32 noundef 4, ptr noundef nonnull @.str.1, i32 noundef %13) #2
  br label %.thread69

22:                                               ; preds = %15
  %23 = getelementptr inbounds nuw i8, ptr %10, i64 72
  %24 = load ptr, ptr %23, align 8, !tbaa !54
  %25 = tail call i32 (ptr, i32, ptr, ...) %24(ptr noundef nonnull %10, i32 noundef 3, ptr noundef nonnull @.str.2, i32 noundef %1) #2
  br label %.thread69

26:                                               ; preds = %5
  %.not = icmp eq ptr %6, null
  br i1 %.not, label %.thread, label %27

27:                                               ; preds = %26
  %28 = load i64, ptr %3, align 8, !tbaa !55
  %29 = icmp ult i64 %28, %4
  br i1 %29, label %30, label %.thread69

30:                                               ; preds = %27
  %.not26.i = icmp eq i64 %28, 0
  br i1 %.not26.i, label %52, label %31

31:                                               ; preds = %30
  %32 = getelementptr inbounds nuw i8, ptr %0, i64 232
  %33 = load ptr, ptr %32, align 8, !tbaa !56
  %.not27.i = icmp eq ptr %33, null
  br i1 %.not27.i, label %35, label %34

34:                                               ; preds = %31
  tail call void %33(i32 noundef %1, ptr noundef nonnull %6) #2
  br label %52

35:                                               ; preds = %31
  %36 = getelementptr inbounds nuw i8, ptr %0, i64 24
  %37 = load ptr, ptr %36, align 8, !tbaa !59
  %.not28.i = icmp eq ptr %37, null
  br i1 %.not28.i, label %internal_encode_free_buffer.exit, label %38

38:                                               ; preds = %35
  %39 = getelementptr inbounds nuw i8, ptr %0, i64 20
  %40 = load i32, ptr %39, align 4, !tbaa !60
  %41 = icmp slt i32 %40, 0
  br i1 %41, label %45, label %42

42:                                               ; preds = %38
  %43 = getelementptr inbounds nuw i8, ptr %37, i64 196
  %44 = load i32, ptr %43, align 4, !tbaa !61
  %.not29.i = icmp slt i32 %40, %44
  br i1 %.not29.i, label %49, label %45

45:                                               ; preds = %42, %38
  %46 = getelementptr inbounds nuw i8, ptr %37, i64 72
  %47 = load ptr, ptr %46, align 8, !tbaa !54
  %48 = tail call i32 (ptr, i32, ptr, ...) %47(ptr noundef nonnull %37, i32 noundef 4, ptr noundef nonnull @.str.1, i32 noundef %40) #2
  br label %internal_encode_free_buffer.exit

49:                                               ; preds = %42
  %50 = getelementptr inbounds nuw i8, ptr %37, i64 96
  %51 = load ptr, ptr %50, align 8, !tbaa !62
  tail call void %51(ptr noundef nonnull %6) #2
  br label %52

52:                                               ; preds = %49, %34, %30
  store ptr null, ptr %2, align 8, !tbaa !51
  br label %.thread

.thread:                                          ; preds = %26, %52
  store i64 0, ptr %3, align 8, !tbaa !55
  br label %internal_encode_free_buffer.exit

internal_encode_free_buffer.exit:                 ; preds = %35, %45, %.thread
  %53 = getelementptr inbounds nuw i8, ptr %0, i64 224
  %54 = load ptr, ptr %53, align 8, !tbaa !63
  %.not62 = icmp eq ptr %54, null
  br i1 %.not62, label %57, label %55

55:                                               ; preds = %internal_encode_free_buffer.exit
  %56 = tail call ptr %54(i32 noundef %1, i64 noundef %4) #2
  br label %75

57:                                               ; preds = %internal_encode_free_buffer.exit
  %58 = getelementptr inbounds nuw i8, ptr %0, i64 24
  %59 = load ptr, ptr %58, align 8, !tbaa !59
  %.not63 = icmp eq ptr %59, null
  br i1 %.not63, label %.thread69, label %60

60:                                               ; preds = %57
  %61 = getelementptr inbounds nuw i8, ptr %0, i64 20
  %62 = load i32, ptr %61, align 4, !tbaa !60
  %63 = icmp slt i32 %62, 0
  br i1 %63, label %67, label %64

64:                                               ; preds = %60
  %65 = getelementptr inbounds nuw i8, ptr %59, i64 196
  %66 = load i32, ptr %65, align 4, !tbaa !61
  %.not64 = icmp slt i32 %62, %66
  br i1 %.not64, label %71, label %67

67:                                               ; preds = %64, %60
  %68 = getelementptr inbounds nuw i8, ptr %59, i64 72
  %69 = load ptr, ptr %68, align 8, !tbaa !54
  %70 = tail call i32 (ptr, i32, ptr, ...) %69(ptr noundef nonnull %59, i32 noundef 4, ptr noundef nonnull @.str.1, i32 noundef %62) #2
  br label %.thread69

71:                                               ; preds = %64
  %72 = getelementptr inbounds nuw i8, ptr %59, i64 88
  %73 = load ptr, ptr %72, align 8, !tbaa !20
  %74 = tail call ptr %73(i64 noundef %4) #2
  br label %75

75:                                               ; preds = %71, %55
  %.051 = phi ptr [ %56, %55 ], [ %74, %71 ]
  %76 = icmp eq ptr %.051, null
  br i1 %76, label %77, label %95

77:                                               ; preds = %75
  %78 = getelementptr inbounds nuw i8, ptr %0, i64 24
  %79 = load ptr, ptr %78, align 8, !tbaa !59
  %.not65 = icmp eq ptr %79, null
  br i1 %.not65, label %.thread69, label %80

80:                                               ; preds = %77
  %81 = getelementptr inbounds nuw i8, ptr %0, i64 20
  %82 = load i32, ptr %81, align 4, !tbaa !60
  %83 = icmp slt i32 %82, 0
  br i1 %83, label %87, label %84

84:                                               ; preds = %80
  %85 = getelementptr inbounds nuw i8, ptr %79, i64 196
  %86 = load i32, ptr %85, align 4, !tbaa !61
  %.not66 = icmp slt i32 %82, %86
  br i1 %.not66, label %91, label %87

87:                                               ; preds = %84, %80
  %88 = getelementptr inbounds nuw i8, ptr %79, i64 72
  %89 = load ptr, ptr %88, align 8, !tbaa !54
  %90 = tail call i32 (ptr, i32, ptr, ...) %89(ptr noundef nonnull %79, i32 noundef 4, ptr noundef nonnull @.str.1, i32 noundef %82) #2
  br label %.thread69

91:                                               ; preds = %84
  %92 = getelementptr inbounds nuw i8, ptr %79, i64 72
  %93 = load ptr, ptr %92, align 8, !tbaa !54
  %94 = tail call i32 (ptr, i32, ptr, ...) %93(ptr noundef nonnull %79, i32 noundef 1, ptr noundef nonnull @.str.3, i64 noundef %4) #2
  br label %.thread69

95:                                               ; preds = %75
  store ptr %.051, ptr %2, align 8, !tbaa !51
  store i64 %4, ptr %3, align 8, !tbaa !55
  br label %.thread69

.thread69:                                        ; preds = %57, %67, %27, %95, %87, %91, %77, %18, %22, %8
  %.1 = phi i32 [ %21, %18 ], [ %25, %22 ], [ 2, %8 ], [ %90, %87 ], [ %94, %91 ], [ 2, %77 ], [ 0, %95 ], [ 0, %27 ], [ 2, %57 ], [ %70, %67 ]
  ret i32 %.1
}